; Function Attrs: mustprogress uwtable
define void @_ZN7rocksdb10EnvOptionsC2Ev(ptr noundef nonnull align 8 dereferenceable(48) initializes((0, 6), (8, 18), (24, 48)) %0) unnamed_addr #4 align 2 personality ptr @__gxx_personality_v0 {
  %2 = alloca %"struct.rocksdb::DBOptions", align 8
  store i8 0, ptr %0, align 8, !tbaa !285
  %3 = getelementptr inbounds nuw i8, ptr %0, i64 1
  store i8 1, ptr %3, align 1, !tbaa !287
  %4 = getelementptr inbounds nuw i8, ptr %0, i64 2
  store i8 0, ptr %4, align 2, !tbaa !278
  %5 = getelementptr inbounds nuw i8, ptr %0, i64 3
  store i8 0, ptr %5, align 1, !tbaa !281
  %6 = getelementptr inbounds nuw i8, ptr %0, i64 4
  store i8 1, ptr %6, align 4, !tbaa !297
  %7 = getelementptr inbounds nuw i8, ptr %0, i64 5
  store i8 1, ptr %7, align 1, !tbaa !290
  %8 = getelementptr inbounds nuw i8, ptr %0, i64 8
  store i64 0, ptr %8, align 8, !tbaa !276
  %9 = getelementptr inbounds nuw i8, ptr %0, i64 16
  store i8 0, ptr %9, align 8, !tbaa !299
  %10 = getelementptr inbounds nuw i8, ptr %0, i64 17
  store i8 1, ptr %10, align 1, !tbaa !283
  %11 = getelementptr inbounds nuw i8, ptr %0, i64 24
  store i64 0, ptr %11, align 8, !tbaa !293
  %12 = getelementptr inbounds nuw i8, ptr %0, i64 32
  store i64 1048576, ptr %12, align 8, !tbaa !99
  %13 = getelementptr inbounds nuw i8, ptr %0, i64 40
  store ptr null, ptr %13, align 8, !tbaa !295
  call void @llvm.lifetime.start.p0(i64 712, ptr nonnull %2) #37
  call void @_ZN7rocksdb9DBOptionsC1Ev(ptr noundef nonnull align 8 dereferenceable(706) %2)
  %14 = getelementptr inbounds nuw i8, ptr %2, i64 304
  %15 = load i8, ptr %14, align 8, !tbaa !284, !range !117, !noundef !118
  store i8 %15, ptr %0, align 8, !tbaa !285
  %16 = getelementptr inbounds nuw i8, ptr %2, i64 305
  %17 = load i8, ptr %16, align 1, !tbaa !286, !range !117, !noundef !118
  store i8 %17, ptr %3, align 1, !tbaa !287
  %18 = getelementptr inbounds nuw i8, ptr %2, i64 306
  %19 = load i8, ptr %18, align 2, !tbaa !288, !range !117, !noundef !118
  store i8 %19, ptr %4, align 2, !tbaa !278
  %20 = getelementptr inbounds nuw i8, ptr %2, i64 309
  %21 = load i8, ptr %20, align 1, !tbaa !289, !range !117, !noundef !118
  store i8 %21, ptr %7, align 1, !tbaa !290
  %22 = getelementptr inbounds nuw i8, ptr %2, i64 392
  %23 = load i64, ptr %22, align 8, !tbaa !291
  store i64 %23, ptr %8, align 8, !tbaa !276
  %24 = getelementptr inbounds nuw i8, ptr %2, i64 368
  %25 = load i64, ptr %24, align 8, !tbaa !292
  store i64 %25, ptr %11, align 8, !tbaa !293
  %26 = getelementptr inbounds nuw i8, ptr %2, i64 24
  %27 = load ptr, ptr %26, align 8, !tbaa !294
  store ptr %27, ptr %13, align 8, !tbaa !295
  %28 = getelementptr inbounds nuw i8, ptr %2, i64 376
  %29 = load i64, ptr %28, align 8, !tbaa !277
  store i64 %29, ptr %12, align 8, !tbaa !99
  %30 = getelementptr inbounds nuw i8, ptr %2, i64 308
  %31 = load i8, ptr %30, align 4, !tbaa !296, !range !117, !noundef !118
  store i8 %31, ptr %6, align 4, !tbaa !297
  %32 = getelementptr inbounds nuw i8, ptr %2, i64 408
  %33 = load i8, ptr %32, align 8, !tbaa !298, !range !117, !noundef !118
  store i8 %33, ptr %9, align 8, !tbaa !299
  %34 = getelementptr inbounds nuw i8, ptr %2, i64 16
  %35 = load ptr, ptr %34, align 8, !tbaa !300
  %36 = load ptr, ptr %35, align 8, !tbaa !18
  %37 = getelementptr inbounds nuw i8, ptr %36, i64 672
  %38 = load ptr, ptr %37, align 8
  invoke void %38(ptr noundef nonnull align 8 dereferenceable(72) %35, ptr noundef nonnull %0)
          to label %_ZN7rocksdb12_GLOBAL__N_116AssignEnvOptionsEPNS_10EnvOptionsERKNS_9DBOptionsE.exit unwind label %39

_ZN7rocksdb12_GLOBAL__N_116AssignEnvOptionsEPNS_10EnvOptionsERKNS_9DBOptionsE.exit: ; preds = %1
  call void @_ZN7rocksdb9DBOptionsD2Ev(ptr noundef nonnull align 8 dereferenceable(706) %2) #37
  call void @llvm.lifetime.end.p0(i64 712, ptr nonnull %2) #37
  ret void

39:                                               ; preds = %1
  %40 = landingpad { ptr, i32 }
          cleanup
  call void @_ZN7rocksdb9DBOptionsD2Ev(ptr noundef nonnull align 8 dereferenceable(706) %2) #37
  call void @llvm.lifetime.end.p0(i64 712, ptr nonnull %2) #37
  resume { ptr, i32 } %40
}